target datalayout = "e-m:e-p270:32:32-p271:32:32-p272:64:64-i64:64-i128:128-f80:128-n8:16:32:64-S128"
target triple = "x86_64-pc-linux-gnu"

%"struct.faiss::IndexNSG" = type <{ %"struct.faiss::Index.base", [4 x i8], %"struct.faiss::NSG", i8, [7 x i8], ptr, i8, [3 x i8], i32, i8, [3 x i8], i32, i32, i32, i32, [4 x i8] }>
%"struct.faiss::Index.base" = type <{ ptr, i32, [4 x i8], i64, i8, i8, [2 x i8], i32, float }>
%"struct.faiss::NSG" = type { i32, i32, i32, i32, i32, i32, %"class.std::shared_ptr", i8, %"struct.faiss::RandomGenerator" }
%"class.std::shared_ptr" = type { %"class.std::__shared_ptr" }
%"class.std::__shared_ptr" = type { ptr, %"class.std::__shared_count" }
%"class.std::__shared_count" = type { ptr }
%"struct.faiss::RandomGenerator" = type { %"class.std::mersenne_twister_engine" }
%"class.std::mersenne_twister_engine" = type { [624 x i64], i64 }
%"struct.faiss::Index" = type <{ ptr, i32, [4 x i8], i64, i8, i8, [2 x i8], i32, float, [4 x i8] }>

@_ZTVN5faiss5IndexE = external unnamed_addr constant { [24 x ptr] }, align 8

; Function Attrs: mustprogress nounwind uwtable
define linkonce_odr void @_ZN5faiss5IndexC2ElNS_10MetricTypeE(ptr noundef nonnull align 8 dereferenceable(36) %0, i64 noundef %1, i32 noundef %2) unnamed_addr #0 comdat align 2 {
  %4 = alloca ptr, align 8
  %5 = alloca i64, align 8
  %6 = alloca i32, align 4
  store ptr %0, ptr %4, align 8
  store i64 %1, ptr %5, align 8
  store i32 %2, ptr %6, align 4
  %7 = load ptr, ptr %4, align 8
  store ptr getelementptr inbounds ({ [24 x ptr] }, ptr @_ZTVN5faiss5IndexE, i32 0, i32 0, i32 2), ptr %7, align 8
  %8 = getelementptr inbounds %"struct.faiss::Index", ptr %7, i32 0, i32 1
  %9 = load i64, ptr %5, align 8
  %10 = trunc i64 %9 to i32
  store i32 %10, ptr %8, align 8
  %11 = getelementptr inbounds %"struct.faiss::Index", ptr %7, i32 0, i32 3
  store i64 0, ptr %11, align 8
  %12 = getelementptr inbounds %"struct.faiss::Index", ptr %7, i32 0, i32 4
  store i8 0, ptr %12, align 8
  %13 = getelementptr inbounds %"struct.faiss::Index", ptr %7, i32 0, i32 5
  store i8 1, ptr %13, align 1
  %14 = getelementptr inbounds %"struct.faiss::Index", ptr %7, i32 0, i32 7
  %15 = load i32, ptr %6, align 4
  store i32 %15, ptr %14, align 4
  %16 = getelementptr inbounds %"struct.faiss::Index", ptr %7, i32 0, i32 8
  store float 0.000000e+00, ptr %16, align 8
  ret void
}

; Function Attrs: mustprogress uwtable
define void @_ZN5faiss8IndexNSGC2EPNS_5IndexEi(ptr noundef nonnull align 8 dereferenceable(5132) %0, ptr noundef %1, i32 noundef %2) unnamed_addr #1 align 2 personality ptr @__gxx_personality_v0 {
  %4 = alloca ptr, align 8
  %5 = alloca ptr, align 8
  %6 = alloca i32, align 4
  %7 = alloca ptr, align 8
  %8 = alloca i32, align 4
  store ptr %0, ptr %4, align 8
  store ptr %1, ptr %5, align 8
  store i32 %2, ptr %6, align 4
  %9 = load ptr, ptr %4, align 8
  %10 = load ptr, ptr %5, align 8
  %11 = getelementptr inbounds %"struct.faiss::Index", ptr %10, i32 0, i32 1
  %12 = load i32, ptr %11, align 8
  %13 = sext i32 %12 to i64
  %14 = load ptr, ptr %5, align 8
  %15 = getelementptr inbounds %"struct.faiss::Index", ptr %14, i32 0, i32 7
  %16 = load i32, ptr %15, align 4
  call void @_ZN5faiss5IndexC2ElNS_10MetricTypeE(ptr noundef nonnull align 8 dereferenceable(36) %9, i64 noundef %13, i32 noundef %16)
  store ptr getelementptr inbounds ({ [24 x ptr] }, ptr @_ZTVN5faiss8IndexNSGE, i32 0, i32 0, i32 2), ptr %9, align 8
  %17 = getelementptr inbounds %"struct.faiss::IndexNSG", ptr %9, i32 0, i32 2
  %18 = load i32, ptr %6, align 4
  invoke void @_ZN5faiss3NSGC1Ei(ptr noundef nonnull align 8 dereferenceable(5048) %17, i32 noundef %18)
          to label %19 unwind label %33

19:                                               ; preds = %3
  %20 = getelementptr inbounds %"struct.faiss::IndexNSG", ptr %9, i32 0, i32 3
  store i8 0, ptr %20, align 8
  %21 = getelementptr inbounds %"struct.faiss::IndexNSG", ptr %9, i32 0, i32 5
  %22 = load ptr, ptr %5, align 8
  store ptr %22, ptr %21, align 8
  %23 = getelementptr inbounds %"struct.faiss::IndexNSG", ptr %9, i32 0, i32 6
  store i8 0, ptr %23, align 8
  %24 = getelementptr inbounds %"struct.faiss::IndexNSG", ptr %9, i32 0, i32 8
  store i32 64, ptr %24, align 4
  %25 = getelementptr inbounds %"struct.faiss::IndexNSG", ptr %9, i32 0, i32 9
  store i8 1, ptr %25, align 8
  %26 = getelementptr inbounds %"struct.faiss::IndexNSG", ptr %9, i32 0, i32 11
  store i32 10, ptr %26, align 4
  %27 = getelementptr inbounds %"struct.faiss::IndexNSG", ptr %9, i32 0, i32 12
  store i32 100, ptr %27, align 8
  %28 = getelementptr inbounds %"struct.faiss::IndexNSG", ptr %9, i32 0, i32 14
  store i32 10, ptr %28, align 8
  %29 = getelementptr inbounds %"struct.faiss::IndexNSG", ptr %9, i32 0, i32 8
  %30 = load i32, ptr %29, align 4
  %31 = add nsw i32 %30, 50
  %32 = getelementptr inbounds %"struct.faiss::IndexNSG", ptr %9, i32 0, i32 13
  store i32 %31, ptr %32, align 4
  ret void

33:                                               ; preds = %3
  %34 = landingpad { ptr, i32 }
          cleanup
  %35 = extractvalue { ptr, i32 } %34, 0
  store ptr %35, ptr %7, align 8
  %36 = extractvalue { ptr, i32 } %34, 1
  store i32 %36, ptr %8, align 4
  call void @_ZN5faiss5IndexD2Ev(ptr noundef nonnull align 8 dereferenceable(36) %9) #7
  br label %37

37:                                               ; preds = %33
  %38 = load ptr, ptr %7, align 8
  %39 = load i32, ptr %8, align 4
  %40 = insertvalue { ptr, i32 } poison, ptr %38, 0
  %41 = insertvalue { ptr, i32 } %40, i32 %39, 1
  resume { ptr, i32 } %41
}