; Function Attrs: mustprogress uwtable
define void @_ZN5faiss8IndexNSGC2EPNS_5IndexEi(ptr noundef nonnull align 8 dereferenceable(5132) %0, ptr noundef %1, i32 noundef %2) unnamed_addr #1 align 2 personality ptr @__gxx_personality_v0 {
  %4 = getelementptr inbounds i8, ptr %1, i64 8
  %5 = load i32, ptr %4, align 8
  %6 = getelementptr inbounds i8, ptr %1, i64 28
  %7 = load i32, ptr %6, align 4
  %8 = getelementptr inbounds i8, ptr %0, i64 8
  store i32 %5, ptr %8, align 8
  %9 = getelementptr inbounds i8, ptr %0, i64 16
  store i64 0, ptr %9, align 8
  %10 = getelementptr inbounds i8, ptr %0, i64 24
  store i8 0, ptr %10, align 8
  %11 = getelementptr inbounds i8, ptr %0, i64 25
  store i8 1, ptr %11, align 1
  %12 = getelementptr inbounds i8, ptr %0, i64 28
  store i32 %7, ptr %12, align 4
  %13 = getelementptr inbounds i8, ptr %0, i64 32
  store float 0.000000e+00, ptr %13, align 8
  store ptr getelementptr inbounds ({ [24 x ptr] }, ptr @_ZTVN5faiss8IndexNSGE, i64 0, i32 0, i64 2), ptr %0, align 8
  %14 = getelementptr inbounds i8, ptr %0, i64 40
  invoke void @_ZN5faiss3NSGC1Ei(ptr noundef nonnull align 8 dereferenceable(5048) %14, i32 noundef %2)
          to label %15 unwind label %22

15:                                               ; preds = %3
  %16 = getelementptr inbounds i8, ptr %0, i64 5088
  store i8 0, ptr %16, align 8
  %17 = getelementptr inbounds i8, ptr %0, i64 5096
  store ptr %1, ptr %17, align 8
  %18 = getelementptr inbounds i8, ptr %0, i64 5104
  store i8 0, ptr %18, align 8
  %19 = getelementptr inbounds i8, ptr %0, i64 5108
  store i32 64, ptr %19, align 4
  %20 = getelementptr inbounds i8, ptr %0, i64 5112
  store i8 1, ptr %20, align 8
  %21 = getelementptr inbounds i8, ptr %0, i64 5116
  store <4 x i32> <i32 10, i32 100, i32 114, i32 10>, ptr %21, align 4
  ret void

22:                                               ; preds = %3
  %23 = landingpad { ptr, i32 }
          cleanup
  tail call void @_ZN5faiss5IndexD2Ev(ptr noundef nonnull align 8 dereferenceable(36) %0) #8
  resume { ptr, i32 } %23
}